target datalayout = "e-m:e-p270:32:32-p271:32:32-p272:64:64-i64:64-i128:128-f80:128-n8:16:32:64-S128"
target triple = "x86_64-pc-linux-gnu"

%struct.opj_j2k = type { i32, %union.anon, ptr, ptr, %struct.opj_cp, ptr, ptr, ptr, i32, ptr, ptr, i32, i32, i32 }
%union.anon = type { %struct.opj_j2k_dec }
%struct.opj_j2k_dec = type { i32, ptr, ptr, i32, i32, i32, i32, i32, i32, i32, i64, i32, i32, ptr, %struct.opj_j2k_tlm_info, i32, i32, ptr, i8 }
%struct.opj_j2k_tlm_info = type { i32, ptr, i32 }
%struct.opj_cp = type { i16, i32, i32, i32, i32, ptr, i32, i32, i32, ptr, ptr, i32, i32, ptr, ptr, ptr, i32, i32, i32, ptr, %union.anon.0, i32, i8 }
%union.anon.0 = type { %struct.opj_encoding_param }
%struct.opj_encoding_param = type { i32, i32, ptr, i8, i32, i8 }
%struct.opj_j2k_enc = type { i32, i32, i32, i32, i64, ptr, ptr, i32, ptr, i32, ptr, i32, i32, i32, i32 }

@.str.108 = private unnamed_addr constant [16 x i8] c"OPJ_NUM_THREADS\00", align 1
@.str.109 = private unnamed_addr constant [9 x i8] c"ALL_CPUS\00", align 1

; Function Attrs: inlinehint nounwind willreturn memory(read) uwtable
define available_externally i32 @atoi(ptr noundef nonnull %0) #9 {
  %2 = alloca ptr, align 8
  store ptr %0, ptr %2, align 8, !tbaa !44
  %3 = load ptr, ptr %2, align 8, !tbaa !44
  %4 = call i64 @strtol(ptr noundef %3, ptr noundef null, i32 noundef 10) #10
  %5 = trunc i64 %4 to i32
  ret i32 %5
}

; Function Attrs: nounwind uwtable
define internal i32 @opj_j2k_get_default_thread_count() #0 {
  %1 = alloca i32, align 4
  %2 = alloca ptr, align 8
  %3 = alloca i32, align 4
  %4 = alloca i32, align 4
  %5 = alloca i32, align 4
  call void @llvm.lifetime.start.p0(i64 8, ptr %2) #10
  %6 = call ptr @getenv(ptr noundef @.str.108) #10
  store ptr %6, ptr %2, align 8, !tbaa !44
  call void @llvm.lifetime.start.p0(i64 4, ptr %3) #10
  call void @llvm.lifetime.start.p0(i64 4, ptr %4) #10
  %7 = load ptr, ptr %2, align 8, !tbaa !44
  %8 = icmp eq ptr %7, null
  br i1 %8, label %12, label %9

9:                                                ; preds = %0
  %10 = call i32 @opj_has_thread_support()
  %11 = icmp ne i32 %10, 0
  br i1 %11, label %13, label %12

12:                                               ; preds = %9, %0
  store i32 0, ptr %1, align 4
  store i32 1, ptr %5, align 4
  br label %41

13:                                               ; preds = %9
  %14 = call i32 @opj_get_num_cpus()
  store i32 %14, ptr %3, align 4, !tbaa !3
  %15 = load ptr, ptr %2, align 8, !tbaa !44
  %16 = call i32 @strcmp(ptr noundef %15, ptr noundef @.str.109) #11
  %17 = icmp eq i32 %16, 0
  br i1 %17, label %18, label %20

18:                                               ; preds = %13
  %19 = load i32, ptr %3, align 4, !tbaa !3
  store i32 %19, ptr %1, align 4
  store i32 1, ptr %5, align 4
  br label %41

20:                                               ; preds = %13
  %21 = load i32, ptr %3, align 4, !tbaa !3
  %22 = icmp eq i32 %21, 0
  br i1 %22, label %23, label %24

23:                                               ; preds = %20
  store i32 32, ptr %3, align 4, !tbaa !3
  br label %24

24:                                               ; preds = %23, %20
  %25 = load ptr, ptr %2, align 8, !tbaa !44
  %26 = call i32 @atoi(ptr noundef %25) #11
  store i32 %26, ptr %4, align 4, !tbaa !3
  %27 = load i32, ptr %4, align 4, !tbaa !3
  %28 = icmp slt i32 %27, 0
  br i1 %28, label %29, label %30

29:                                               ; preds = %24
  store i32 0, ptr %4, align 4, !tbaa !3
  br label %39

30:                                               ; preds = %24
  %31 = load i32, ptr %4, align 4, !tbaa !3
  %32 = load i32, ptr %3, align 4, !tbaa !3
  %33 = mul nsw i32 2, %32
  %34 = icmp sgt i32 %31, %33
  br i1 %34, label %35, label %38

35:                                               ; preds = %30
  %36 = load i32, ptr %3, align 4, !tbaa !3
  %37 = mul nsw i32 2, %36
  store i32 %37, ptr %4, align 4, !tbaa !3
  br label %38

38:                                               ; preds = %35, %30
  br label %39

39:                                               ; preds = %38, %29
  %40 = load i32, ptr %4, align 4, !tbaa !3
  store i32 %40, ptr %1, align 4
  store i32 1, ptr %5, align 4
  br label %41

41:                                               ; preds = %39, %18, %12
  call void @llvm.lifetime.end.p0(i64 4, ptr %4) #10
  call void @llvm.lifetime.end.p0(i64 4, ptr %3) #10
  call void @llvm.lifetime.end.p0(i64 8, ptr %2) #10
  %42 = load i32, ptr %1, align 4
  ret i32 %42
}

; Function Attrs: nounwind uwtable
define hidden ptr @opj_j2k_create_compress() #0 {
  %1 = alloca ptr, align 8
  %2 = alloca ptr, align 8
  %3 = alloca i32, align 4
  call void @llvm.lifetime.start.p0(i64 8, ptr %2) #10
  %4 = call ptr @opj_calloc(i64 noundef 1, i64 noundef 376)
  store ptr %4, ptr %2, align 8, !tbaa !14
  %5 = load ptr, ptr %2, align 8, !tbaa !14
  %6 = icmp ne ptr %5, null
  br i1 %6, label %8, label %7

7:                                                ; preds = %0
  store ptr null, ptr %1, align 8
  store i32 1, ptr %3, align 4
  br label %73

8:                                                ; preds = %0
  %9 = load ptr, ptr %2, align 8, !tbaa !14
  %10 = getelementptr inbounds nuw %struct.opj_j2k, ptr %9, i32 0, i32 0
  store i32 0, ptr %10, align 8, !tbaa !38
  %11 = load ptr, ptr %2, align 8, !tbaa !14
  %12 = getelementptr inbounds nuw %struct.opj_j2k, ptr %11, i32 0, i32 4
  %13 = getelementptr inbounds nuw %struct.opj_cp, ptr %12, i32 0, i32 22
  %14 = load i8, ptr %13, align 4
  %15 = and i8 %14, -3
  %16 = or i8 %15, 0
  store i8 %16, ptr %13, align 4
  %17 = call ptr @opj_malloc(i64 noundef 1000)
  %18 = load ptr, ptr %2, align 8, !tbaa !14
  %19 = getelementptr inbounds nuw %struct.opj_j2k, ptr %18, i32 0, i32 1
  %20 = getelementptr inbounds nuw %struct.opj_j2k_enc, ptr %19, i32 0, i32 10
  store ptr %17, ptr %20, align 8, !tbaa !20
  %21 = load ptr, ptr %2, align 8, !tbaa !14
  %22 = getelementptr inbounds nuw %struct.opj_j2k, ptr %21, i32 0, i32 1
  %23 = getelementptr inbounds nuw %struct.opj_j2k_enc, ptr %22, i32 0, i32 10
  %24 = load ptr, ptr %23, align 8, !tbaa !20
  %25 = icmp ne ptr %24, null
  br i1 %25, label %28, label %26

26:                                               ; preds = %8
  %27 = load ptr, ptr %2, align 8, !tbaa !14
  call void @opj_j2k_destroy(ptr noundef %27)
  store ptr null, ptr %1, align 8
  store i32 1, ptr %3, align 4
  br label %73

28:                                               ; preds = %8
  %29 = load ptr, ptr %2, align 8, !tbaa !14
  %30 = getelementptr inbounds nuw %struct.opj_j2k, ptr %29, i32 0, i32 1
  %31 = getelementptr inbounds nuw %struct.opj_j2k_enc, ptr %30, i32 0, i32 11
  store i32 1000, ptr %31, align 8, !tbaa !20
  %32 = call ptr @opj_procedure_list_create()
  %33 = load ptr, ptr %2, align 8, !tbaa !14
  %34 = getelementptr inbounds nuw %struct.opj_j2k, ptr %33, i32 0, i32 6
  store ptr %32, ptr %34, align 8, !tbaa !39
  %35 = load ptr, ptr %2, align 8, !tbaa !14
  %36 = getelementptr inbounds nuw %struct.opj_j2k, ptr %35, i32 0, i32 6
  %37 = load ptr, ptr %36, align 8, !tbaa !39
  %38 = icmp ne ptr %37, null
  br i1 %38, label %41, label %39

39:                                               ; preds = %28
  %40 = load ptr, ptr %2, align 8, !tbaa !14
  call void @opj_j2k_destroy(ptr noundef %40)
  store ptr null, ptr %1, align 8
  store i32 1, ptr %3, align 4
  br label %73

41:                                               ; preds = %28
  %42 = call ptr @opj_procedure_list_create()
  %43 = load ptr, ptr %2, align 8, !tbaa !14
  %44 = getelementptr inbounds nuw %struct.opj_j2k, ptr %43, i32 0, i32 5
  store ptr %42, ptr %44, align 8, !tbaa !40
  %45 = load ptr, ptr %2, align 8, !tbaa !14
  %46 = getelementptr inbounds nuw %struct.opj_j2k, ptr %45, i32 0, i32 5
  %47 = load ptr, ptr %46, align 8, !tbaa !40
  %48 = icmp ne ptr %47, null
  br i1 %48, label %51, label %49

49:                                               ; preds = %41
  %50 = load ptr, ptr %2, align 8, !tbaa !14
  call void @opj_j2k_destroy(ptr noundef %50)
  store ptr null, ptr %1, align 8
  store i32 1, ptr %3, align 4
  br label %73

51:                                               ; preds = %41
  %52 = call i32 @opj_j2k_get_default_thread_count()
  %53 = call ptr @opj_thread_pool_create(i32 noundef %52)
  %54 = load ptr, ptr %2, align 8, !tbaa !14
  %55 = getelementptr inbounds nuw %struct.opj_j2k, ptr %54, i32 0, i32 10
  store ptr %53, ptr %55, align 8, !tbaa !37
  %56 = load ptr, ptr %2, align 8, !tbaa !14
  %57 = getelementptr inbounds nuw %struct.opj_j2k, ptr %56, i32 0, i32 10
  %58 = load ptr, ptr %57, align 8, !tbaa !37
  %59 = icmp ne ptr %58, null
  br i1 %59, label %64, label %60

60:                                               ; preds = %51
  %61 = call ptr @opj_thread_pool_create(i32 noundef 0)
  %62 = load ptr, ptr %2, align 8, !tbaa !14
  %63 = getelementptr inbounds nuw %struct.opj_j2k, ptr %62, i32 0, i32 10
  store ptr %61, ptr %63, align 8, !tbaa !37
  br label %64

64:                                               ; preds = %60, %51
  %65 = load ptr, ptr %2, align 8, !tbaa !14
  %66 = getelementptr inbounds nuw %struct.opj_j2k, ptr %65, i32 0, i32 10
  %67 = load ptr, ptr %66, align 8, !tbaa !37
  %68 = icmp ne ptr %67, null
  br i1 %68, label %71, label %69

69:                                               ; preds = %64
  %70 = load ptr, ptr %2, align 8, !tbaa !14
  call void @opj_j2k_destroy(ptr noundef %70)
  store ptr null, ptr %1, align 8
  store i32 1, ptr %3, align 4
  br label %73

71:                                               ; preds = %64
  %72 = load ptr, ptr %2, align 8, !tbaa !14
  store ptr %72, ptr %1, align 8
  store i32 1, ptr %3, align 4
  br label %73

73:                                               ; preds = %71, %69, %49, %39, %26, %7
  call void @llvm.lifetime.end.p0(i64 8, ptr %2) #10
  %74 = load ptr, ptr %1, align 8
  ret ptr %74
}