; Function Attrs: nounwind uwtable
define hidden ptr @opj_j2k_create_compress() local_unnamed_addr #3 {
  %1 = tail call ptr @opj_calloc(i64 noundef 1, i64 noundef 376) #21
  %.not = icmp eq ptr %1, null
  br i1 %.not, label %.thread, label %2

2:                                                ; preds = %0
  store i32 0, ptr %1, align 8, !tbaa !31
  %3 = getelementptr inbounds nuw i8, ptr %1, i64 308
  %4 = load i8, ptr %3, align 4
  %5 = and i8 %4, -3
  store i8 %5, ptr %3, align 4
  %6 = tail call ptr @opj_malloc(i64 noundef 1000) #21
  %7 = getelementptr inbounds nuw i8, ptr %1, i64 72
  store ptr %6, ptr %7, align 8, !tbaa !12
  %.not21 = icmp eq ptr %6, null
  br i1 %.not21, label %.thread.sink.split, label %8

8:                                                ; preds = %2
  %9 = getelementptr inbounds nuw i8, ptr %1, i64 80
  store i32 1000, ptr %9, align 8, !tbaa !12
  %10 = tail call ptr @opj_procedure_list_create() #21
  %11 = getelementptr inbounds nuw i8, ptr %1, i64 320
  store ptr %10, ptr %11, align 8, !tbaa !32
  %.not22 = icmp eq ptr %10, null
  br i1 %.not22, label %.thread.sink.split, label %12

12:                                               ; preds = %8
  %13 = tail call ptr @opj_procedure_list_create() #21
  %14 = getelementptr inbounds nuw i8, ptr %1, i64 312
  store ptr %13, ptr %14, align 8, !tbaa !33
  %.not23 = icmp eq ptr %13, null
  br i1 %.not23, label %.thread.sink.split, label %15

15:                                               ; preds = %12
  %16 = tail call ptr @getenv(ptr noundef nonnull @.str.108) #21
  %17 = icmp eq ptr %16, null
  br i1 %17, label %opj_j2k_get_default_thread_count.exit, label %18

18:                                               ; preds = %15
  %19 = tail call i32 @opj_has_thread_support() #21
  %.not.i = icmp eq i32 %19, 0
  br i1 %.not.i, label %opj_j2k_get_default_thread_count.exit, label %20

20:                                               ; preds = %18
  %21 = tail call i32 @opj_get_num_cpus() #21
  %22 = tail call i32 @strcmp(ptr noundef nonnull dereferenceable(1) %16, ptr noundef nonnull dereferenceable(9) @.str.109) #22
  %23 = icmp eq i32 %22, 0
  br i1 %23, label %opj_j2k_get_default_thread_count.exit, label %24

24:                                               ; preds = %20
  %25 = tail call i64 @strtol(ptr noundef nonnull captures(none) %16, ptr noundef null, i32 noundef 10) #21
  %26 = trunc i64 %25 to i32
  %27 = icmp slt i32 %26, 0
  br i1 %27, label %opj_j2k_get_default_thread_count.exit, label %28

28:                                               ; preds = %24
  %29 = icmp eq i32 %21, 0
  %30 = shl nsw i32 %21, 1
  %31 = select i1 %29, i32 64, i32 %30
  %spec.select.i = tail call i32 @llvm.smin.i32(i32 %31, i32 %26)
  br label %opj_j2k_get_default_thread_count.exit

opj_j2k_get_default_thread_count.exit:            ; preds = %15, %18, %20, %24, %28
  %.010.i = phi i32 [ 0, %18 ], [ 0, %15 ], [ %21, %20 ], [ 0, %24 ], [ %spec.select.i, %28 ]
  %32 = tail call ptr @opj_thread_pool_create(i32 noundef %.010.i) #21
  %33 = getelementptr inbounds nuw i8, ptr %1, i64 352
  store ptr %32, ptr %33, align 8, !tbaa !30
  %.not24 = icmp eq ptr %32, null
  br i1 %.not24, label %34, label %.thread

34:                                               ; preds = %opj_j2k_get_default_thread_count.exit
  %35 = tail call ptr @opj_thread_pool_create(i32 noundef 0) #21
  store ptr %35, ptr %33, align 8, !tbaa !30
  %.not25 = icmp eq ptr %35, null
  br i1 %.not25, label %.thread.sink.split, label %.thread

.thread.sink.split:                               ; preds = %34, %12, %8, %2
  tail call void @opj_j2k_destroy(ptr noundef nonnull %1)
  br label %.thread

.thread:                                          ; preds = %.thread.sink.split, %opj_j2k_get_default_thread_count.exit, %34, %0
  %.0 = phi ptr [ null, %0 ], [ %1, %34 ], [ %1, %opj_j2k_get_default_thread_count.exit ], [ null, %.thread.sink.split ]
  ret ptr %.0
}